target datalayout = "e-m:e-p270:32:32-p271:32:32-p272:64:64-i64:64-i128:128-f80:128-n8:16:32:64-S128"
target triple = "x86_64-pc-linux-gnu"

%struct.ident_t = type { i32, i32, i32, i32, ptr }
%"struct.faiss::RandomGenerator" = type { %"class.std::mersenne_twister_engine" }
%"class.std::mersenne_twister_engine" = type { [624 x i64], i64 }

@1 = private unnamed_addr constant %struct.ident_t { i32 0, i32 514, i32 0, i32 22, ptr @0 }, align 8
@_ZN5faiss15RandomGeneratorC1El = unnamed_addr alias void (ptr, i64), ptr @_ZN5faiss15RandomGeneratorC2El

; Function Attrs: mustprogress uwtable
define noundef i32 @_ZN5faiss15RandomGenerator8rand_intEv(ptr noundef nonnull align 8 dereferenceable(5000) %0) #0 align 2 {
  %2 = alloca ptr, align 8
  store ptr %0, ptr %2, align 8, !tbaa !4
  %3 = load ptr, ptr %2, align 8
  %4 = getelementptr inbounds nuw %"struct.faiss::RandomGenerator", ptr %3, i32 0, i32 0
  %5 = call noundef i64 @_ZNSt23mersenne_twister_engineImLm32ELm624ELm397ELm31ELm2567483615ELm11ELm4294967295ELm7ELm2636928640ELm15ELm4022730752ELm18ELm1812433253EEclEv(ptr noundef nonnull align 8 dereferenceable(5000) %4)
  %6 = and i64 %5, 2147483647
  %7 = trunc i64 %6 to i32
  ret i32 %7
}

; Function Attrs: mustprogress uwtable
define noundef i64 @_ZN5faiss15RandomGenerator10rand_int64Ev(ptr noundef nonnull align 8 dereferenceable(5000) %0) #0 align 2 {
  %2 = alloca ptr, align 8
  store ptr %0, ptr %2, align 8, !tbaa !4
  %3 = load ptr, ptr %2, align 8
  %4 = call noundef i32 @_ZN5faiss15RandomGenerator8rand_intEv(ptr noundef nonnull align 8 dereferenceable(5000) %3)
  %5 = sext i32 %4 to i64
  %6 = call noundef i32 @_ZN5faiss15RandomGenerator8rand_intEv(ptr noundef nonnull align 8 dereferenceable(5000) %3)
  %7 = sext i32 %6 to i64
  %8 = shl i64 %7, 31
  %9 = or i64 %5, %8
  ret i64 %9
}

; Function Attrs: alwaysinline norecurse nounwind uwtable
define internal void @_ZN5faiss14int64_rand_maxEPlmml.omp_outlined(ptr noalias noundef %0, ptr noalias noundef %1, ptr noundef nonnull align 8 dereferenceable(8) %2, ptr noundef nonnull align 4 dereferenceable(4) %3, ptr noundef nonnull align 4 dereferenceable(4) %4, ptr noundef nonnull align 8 dereferenceable(8) %5, ptr noundef nonnull align 8 dereferenceable(8) %6, ptr noundef nonnull align 8 dereferenceable(8) %7) #4 personality ptr @__gxx_personality_v0 {
  %9 = alloca ptr, align 8
  %10 = alloca ptr, align 8
  %11 = alloca ptr, align 8
  %12 = alloca ptr, align 8
  %13 = alloca ptr, align 8
  %14 = alloca ptr, align 8
  %15 = alloca ptr, align 8
  %16 = alloca ptr, align 8
  %17 = alloca i64, align 8
  %18 = alloca i64, align 8
  %19 = alloca i64, align 8
  %20 = alloca i64, align 8
  %21 = alloca i64, align 8
  %22 = alloca i64, align 8
  %23 = alloca i64, align 8
  %24 = alloca i32, align 4
  %25 = alloca i64, align 8
  %26 = alloca %"struct.faiss::RandomGenerator", align 8
  %27 = alloca i64, align 8
  %28 = alloca i64, align 8
  %29 = alloca i64, align 8
  store ptr %0, ptr %9, align 8, !tbaa !27
  store ptr %1, ptr %10, align 8, !tbaa !27
  store ptr %2, ptr %11, align 8, !tbaa !29
  store ptr %3, ptr %12, align 8, !tbaa !27
  store ptr %4, ptr %13, align 8, !tbaa !27
  store ptr %5, ptr %14, align 8, !tbaa !29
  store ptr %6, ptr %15, align 8, !tbaa !42
  store ptr %7, ptr %16, align 8, !tbaa !29
  %30 = load ptr, ptr %11, align 8, !tbaa !29
  %31 = load ptr, ptr %12, align 8, !tbaa !27
  %32 = load ptr, ptr %13, align 8, !tbaa !27
  %33 = load ptr, ptr %14, align 8, !tbaa !29
  %34 = load ptr, ptr %15, align 8, !tbaa !42
  %35 = load ptr, ptr %16, align 8, !tbaa !29
  call void @llvm.lifetime.start.p0(i64 8, ptr %17) #5
  call void @llvm.lifetime.start.p0(i64 8, ptr %18) #5
  %36 = load i64, ptr %30, align 8, !tbaa !9
  store i64 %36, ptr %18, align 8, !tbaa !9
  call void @llvm.lifetime.start.p0(i64 8, ptr %19) #5
  %37 = load i64, ptr %18, align 8, !tbaa !9
  %38 = sub i64 %37, 0
  %39 = udiv i64 %38, 1
  %40 = sub i64 %39, 1
  store i64 %40, ptr %19, align 8, !tbaa !9
  call void @llvm.lifetime.start.p0(i64 8, ptr %20) #5
  store i64 0, ptr %20, align 8, !tbaa !9
  call void @llvm.lifetime.end.p0(i64 8, ptr %20) #5
  %41 = load i64, ptr %18, align 8, !tbaa !9
  %42 = icmp ult i64 0, %41
  br i1 %42, label %43, label %112

43:                                               ; preds = %8
  call void @llvm.lifetime.start.p0(i64 8, ptr %21) #5
  store i64 0, ptr %21, align 8, !tbaa !9
  call void @llvm.lifetime.start.p0(i64 8, ptr %22) #5
  %44 = load i64, ptr %19, align 8, !tbaa !9
  store i64 %44, ptr %22, align 8, !tbaa !9
  call void @llvm.lifetime.start.p0(i64 8, ptr %23) #5
  store i64 1, ptr %23, align 8, !tbaa !9
  call void @llvm.lifetime.start.p0(i64 4, ptr %24) #5
  store i32 0, ptr %24, align 4, !tbaa !19
  call void @llvm.lifetime.start.p0(i64 8, ptr %25) #5
  %45 = load ptr, ptr %9, align 8
  %46 = load i32, ptr %45, align 4, !tbaa !19
  call void @__kmpc_for_static_init_8u(ptr @1, i32 %46, i32 34, ptr %24, ptr %21, ptr %22, ptr %23, i64 1, i64 1)
  %47 = load i64, ptr %22, align 8, !tbaa !9
  %48 = load i64, ptr %19, align 8, !tbaa !9
  %49 = icmp ugt i64 %47, %48
  br i1 %49, label %50, label %52

50:                                               ; preds = %43
  %51 = load i64, ptr %19, align 8, !tbaa !9
  br label %54

52:                                               ; preds = %43
  %53 = load i64, ptr %22, align 8, !tbaa !9
  br label %54

54:                                               ; preds = %52, %50
  %55 = phi i64 [ %51, %50 ], [ %53, %52 ]
  store i64 %55, ptr %22, align 8, !tbaa !9
  %56 = load i64, ptr %21, align 8, !tbaa !9
  store i64 %56, ptr %17, align 8, !tbaa !9
  br label %57

57:                                               ; preds = %105, %54
  %58 = load i64, ptr %17, align 8, !tbaa !9
  %59 = load i64, ptr %22, align 8, !tbaa !9
  %60 = add i64 %59, 1
  %61 = icmp ult i64 %58, %60
  br i1 %61, label %63, label %62

62:                                               ; preds = %57
  br label %108

63:                                               ; preds = %57
  %64 = load i64, ptr %17, align 8, !tbaa !9
  %65 = mul i64 %64, 1
  %66 = add i64 0, %65
  store i64 %66, ptr %25, align 8, !tbaa !9
  call void @llvm.lifetime.start.p0(i64 5000, ptr %26) #5
  %67 = load i32, ptr %31, align 4, !tbaa !19
  %68 = sext i32 %67 to i64
  %69 = load i64, ptr %25, align 8, !tbaa !9
  %70 = load i32, ptr %32, align 4, !tbaa !19
  %71 = sext i32 %70 to i64
  %72 = mul nsw i64 %69, %71
  %73 = add nsw i64 %68, %72
  invoke void @_ZN5faiss15RandomGeneratorC1El(ptr noundef nonnull align 8 dereferenceable(5000) %26, i64 noundef %73)
          to label %74 unwind label %113

74:                                               ; preds = %63
  call void @llvm.lifetime.start.p0(i64 8, ptr %27) #5
  %75 = load i64, ptr %25, align 8, !tbaa !9
  %76 = load i64, ptr %33, align 8, !tbaa !9
  %77 = mul i64 %75, %76
  %78 = load i64, ptr %30, align 8, !tbaa !9
  %79 = udiv i64 %77, %78
  store i64 %79, ptr %27, align 8, !tbaa !9
  call void @llvm.lifetime.start.p0(i64 8, ptr %28) #5
  %80 = load i64, ptr %25, align 8, !tbaa !9
  %81 = add nsw i64 %80, 1
  %82 = load i64, ptr %33, align 8, !tbaa !9
  %83 = mul i64 %81, %82
  %84 = load i64, ptr %30, align 8, !tbaa !9
  %85 = udiv i64 %83, %84
  store i64 %85, ptr %28, align 8, !tbaa !9
  call void @llvm.lifetime.start.p0(i64 8, ptr %29) #5
  %86 = load i64, ptr %27, align 8, !tbaa !9
  store i64 %86, ptr %29, align 8, !tbaa !9
  br label %87

87:                                               ; preds = %100, %74
  %88 = load i64, ptr %29, align 8, !tbaa !9
  %89 = load i64, ptr %28, align 8, !tbaa !9
  %90 = icmp ult i64 %88, %89
  br i1 %90, label %92, label %91

91:                                               ; preds = %87
  call void @llvm.lifetime.end.p0(i64 8, ptr %29) #5
  br label %103

92:                                               ; preds = %87
  %93 = invoke noundef i64 @_ZN5faiss15RandomGenerator10rand_int64Ev(ptr noundef nonnull align 8 dereferenceable(5000) %26)
          to label %94 unwind label %113

94:                                               ; preds = %92
  %95 = load i64, ptr %35, align 8, !tbaa !9
  %96 = urem i64 %93, %95
  %97 = load ptr, ptr %34, align 8, !tbaa !29
  %98 = load i64, ptr %29, align 8, !tbaa !9
  %99 = getelementptr inbounds nuw i64, ptr %97, i64 %98
  store i64 %96, ptr %99, align 8, !tbaa !9
  br label %100

100:                                              ; preds = %94
  %101 = load i64, ptr %29, align 8, !tbaa !9
  %102 = add i64 %101, 1
  store i64 %102, ptr %29, align 8, !tbaa !9
  br label %87, !llvm.loop !45

103:                                              ; preds = %91
  call void @llvm.lifetime.end.p0(i64 8, ptr %28) #5
  call void @llvm.lifetime.end.p0(i64 8, ptr %27) #5
  call void @llvm.lifetime.end.p0(i64 5000, ptr %26) #5
  br label %104

104:                                              ; preds = %103
  br label %105

105:                                              ; preds = %104
  %106 = load i64, ptr %17, align 8, !tbaa !9
  %107 = add i64 %106, 1
  store i64 %107, ptr %17, align 8, !tbaa !9
  br label %57

108:                                              ; preds = %62
  br label %109

109:                                              ; preds = %108
  %110 = load ptr, ptr %9, align 8
  %111 = load i32, ptr %110, align 4, !tbaa !19
  call void @__kmpc_for_static_fini(ptr @1, i32 %111)
  call void @llvm.lifetime.end.p0(i64 8, ptr %25) #5
  call void @llvm.lifetime.end.p0(i64 4, ptr %24) #5
  call void @llvm.lifetime.end.p0(i64 8, ptr %23) #5
  call void @llvm.lifetime.end.p0(i64 8, ptr %22) #5
  call void @llvm.lifetime.end.p0(i64 8, ptr %21) #5
  br label %112

112:                                              ; preds = %109, %8
  call void @llvm.lifetime.end.p0(i64 8, ptr %19) #5
  call void @llvm.lifetime.end.p0(i64 8, ptr %18) #5
  call void @llvm.lifetime.end.p0(i64 8, ptr %17) #5
  ret void

113:                                              ; preds = %92, %63
  %114 = landingpad { ptr, i32 }
          catch ptr null
  %115 = extractvalue { ptr, i32 } %114, 0
  call void @__clang_call_terminate(ptr %115) #16
  unreachable
}