; Function Attrs: alwaysinline norecurse nounwind uwtable
define internal void @_ZN5faiss14int64_rand_maxEPlmml.omp_outlined(ptr noalias noundef readonly captures(none) %0, ptr noalias readnone captures(none) %1, ptr noundef nonnull readonly align 8 captures(none) dereferenceable(8) %2, ptr noundef nonnull readonly align 4 captures(none) dereferenceable(4) %3, ptr noundef nonnull readonly align 4 captures(none) dereferenceable(4) %4, ptr noundef nonnull readonly align 8 captures(none) dereferenceable(8) %5, ptr noundef nonnull readonly align 8 captures(none) dereferenceable(8) %6, ptr noundef nonnull readonly align 8 captures(none) dereferenceable(8) %7) #5 personality ptr @__gxx_personality_v0 {
  %9 = alloca i64, align 8
  %10 = alloca i64, align 8
  %11 = alloca i64, align 8
  %12 = alloca i32, align 4
  %13 = alloca %"struct.faiss::RandomGenerator", align 8
  %14 = load i64, ptr %2, align 8, !tbaa !4
  %.not = icmp eq i64 %14, 0
  br i1 %.not, label %117, label %15

15:                                               ; preds = %8
  %16 = add i64 %14, -1
  call void @llvm.lifetime.start.p0(i64 8, ptr nonnull %9) #6
  store i64 0, ptr %9, align 8, !tbaa !4
  call void @llvm.lifetime.start.p0(i64 8, ptr nonnull %10) #6
  store i64 %16, ptr %10, align 8, !tbaa !4
  call void @llvm.lifetime.start.p0(i64 8, ptr nonnull %11) #6
  store i64 1, ptr %11, align 8, !tbaa !4
  call void @llvm.lifetime.start.p0(i64 4, ptr nonnull %12) #6
  store i32 0, ptr %12, align 4, !tbaa !19
  %17 = load i32, ptr %0, align 4, !tbaa !19
  call void @__kmpc_for_static_init_8u(ptr nonnull @1, i32 %17, i32 34, ptr nonnull %12, ptr nonnull %9, ptr nonnull %10, ptr nonnull %11, i64 1, i64 1)
  %18 = load i64, ptr %10, align 8, !tbaa !4
  %19 = call i64 @llvm.umin.i64(i64 %18, i64 %16)
  store i64 %19, ptr %10, align 8, !tbaa !4
  %20 = load i64, ptr %9, align 8, !tbaa !4
  %.not30 = icmp ugt i64 %20, %19
  br i1 %.not30, label %._crit_edge29, label %.lr.ph28

.lr.ph28:                                         ; preds = %15
  %21 = getelementptr inbounds nuw i8, ptr %13, i64 4992
  %.phi.trans.insert.i.i = getelementptr inbounds nuw i8, ptr %13, i64 1816
  %22 = getelementptr inbounds nuw i8, ptr %13, i64 4984
  %23 = getelementptr inbounds nuw i8, ptr %13, i64 3168
  br label %24

24:                                               ; preds = %.lr.ph28, %._crit_edge
  %.02326 = phi i64 [ %20, %.lr.ph28 ], [ %36, %._crit_edge ]
  call void @llvm.lifetime.start.p0(i64 5000, ptr nonnull %13) #6
  %25 = load i32, ptr %3, align 4, !tbaa !19
  %26 = sext i32 %25 to i64
  %27 = load i32, ptr %4, align 4, !tbaa !19
  %28 = sext i32 %27 to i64
  %29 = mul nsw i64 %.02326, %28
  %30 = add nsw i64 %29, %26
  invoke void @_ZN5faiss15RandomGeneratorC1El(ptr noundef nonnull align 8 dereferenceable(5000) %13, i64 noundef %30)
          to label %31 unwind label %.loopexit.split-lp

31:                                               ; preds = %24
  %32 = load i64, ptr %5, align 8, !tbaa !4
  %33 = mul i64 %32, %.02326
  %34 = load i64, ptr %2, align 8, !tbaa !4
  %35 = udiv i64 %33, %34
  %36 = add nuw nsw i64 %.02326, 1
  %37 = mul i64 %32, %36
  %38 = udiv i64 %37, %34
  %39 = icmp ult i64 %35, %38
  br i1 %39, label %.lr.ph, label %._crit_edge

._crit_edge:                                      ; preds = %95, %31
  call void @llvm.lifetime.end.p0(i64 5000, ptr nonnull %13) #6
  %40 = load i64, ptr %10, align 8, !tbaa !4
  %41 = add i64 %40, 1
  %42 = icmp ult i64 %36, %41
  br i1 %42, label %24, label %._crit_edge29

.lr.ph:                                           ; preds = %31, %95
  %.025 = phi i64 [ %115, %95 ], [ %35, %31 ]
  %43 = load i64, ptr %21, align 8, !tbaa !10
  %44 = icmp ugt i64 %43, 623
  br i1 %44, label %45, label %.noexc

45:                                               ; preds = %.lr.ph
  %.pre.i.i = load i64, ptr %13, align 8, !tbaa !4
  br label %46

46:                                               ; preds = %46, %45
  %47 = phi i64 [ %.pre.i.i, %45 ], [ %52, %46 ]
  %.021.i.i = phi i64 [ 0, %45 ], [ %50, %46 ]
  %48 = getelementptr inbounds nuw [624 x i64], ptr %13, i64 0, i64 %.021.i.i
  %49 = and i64 %47, -2147483648
  %50 = add nuw nsw i64 %.021.i.i, 1
  %51 = getelementptr inbounds nuw [624 x i64], ptr %13, i64 0, i64 %50
  %52 = load i64, ptr %51, align 8, !tbaa !4
  %53 = and i64 %52, 2147483646
  %54 = or disjoint i64 %53, %49
  %55 = add nuw nsw i64 %.021.i.i, 397
  %56 = getelementptr inbounds nuw [624 x i64], ptr %13, i64 0, i64 %55
  %57 = load i64, ptr %56, align 8, !tbaa !4
  %58 = lshr exact i64 %54, 1
  %59 = xor i64 %58, %57
  %60 = and i64 %52, 1
  %.not20.i.i = icmp eq i64 %60, 0
  %61 = select i1 %.not20.i.i, i64 0, i64 2567483615
  %62 = xor i64 %59, %61
  store i64 %62, ptr %48, align 8, !tbaa !4
  %exitcond.not.i.i = icmp eq i64 %50, 227
  br i1 %exitcond.not.i.i, label %.preheader.preheader.i.i, label %46, !llvm.loop !12

.preheader.preheader.i.i:                         ; preds = %46
  %.pre24.i.i = load i64, ptr %.phi.trans.insert.i.i, align 8, !tbaa !4
  br label %.preheader.i.i

.preheader.i.i:                                   ; preds = %.preheader.i.i, %.preheader.preheader.i.i
  %63 = phi i64 [ %68, %.preheader.i.i ], [ %.pre24.i.i, %.preheader.preheader.i.i ]
  %.01822.i.i = phi i64 [ %66, %.preheader.i.i ], [ 227, %.preheader.preheader.i.i ]
  %64 = getelementptr inbounds nuw [624 x i64], ptr %13, i64 0, i64 %.01822.i.i
  %65 = and i64 %63, -2147483648
  %66 = add nuw nsw i64 %.01822.i.i, 1
  %67 = getelementptr inbounds nuw [624 x i64], ptr %13, i64 0, i64 %66
  %68 = load i64, ptr %67, align 8, !tbaa !4
  %69 = and i64 %68, 2147483646
  %70 = or disjoint i64 %69, %65
  %71 = add nsw i64 %.01822.i.i, -227
  %72 = getelementptr inbounds nuw [624 x i64], ptr %13, i64 0, i64 %71
  %73 = load i64, ptr %72, align 8, !tbaa !4
  %74 = lshr exact i64 %70, 1
  %75 = xor i64 %74, %73
  %76 = and i64 %68, 1
  %.not19.i.i = icmp eq i64 %76, 0
  %77 = select i1 %.not19.i.i, i64 0, i64 2567483615
  %78 = xor i64 %75, %77
  store i64 %78, ptr %64, align 8, !tbaa !4
  %exitcond23.not.i.i = icmp eq i64 %66, 623
  br i1 %exitcond23.not.i.i, label %_ZNSt23mersenne_twister_engineImLm32ELm624ELm397ELm31ELm2567483615ELm11ELm4294967295ELm7ELm2636928640ELm15ELm4022730752ELm18ELm1812433253EE11_M_gen_randEv.exit.i, label %.preheader.i.i, !llvm.loop !13

_ZNSt23mersenne_twister_engineImLm32ELm624ELm397ELm31ELm2567483615ELm11ELm4294967295ELm7ELm2636928640ELm15ELm4022730752ELm18ELm1812433253EE11_M_gen_randEv.exit.i: ; preds = %.preheader.i.i
  %79 = load i64, ptr %22, align 8, !tbaa !4
  %80 = and i64 %79, -2147483648
  %81 = load i64, ptr %13, align 8, !tbaa !4
  %82 = and i64 %81, 2147483646
  %83 = or disjoint i64 %82, %80
  %84 = load i64, ptr %23, align 8, !tbaa !4
  %85 = lshr exact i64 %83, 1
  %86 = xor i64 %85, %84
  %87 = and i64 %81, 1
  %.not.i.i = icmp eq i64 %87, 0
  %88 = select i1 %.not.i.i, i64 0, i64 2567483615
  %89 = xor i64 %86, %88
  store i64 %89, ptr %22, align 8, !tbaa !4
  br label %.noexc

.noexc:                                           ; preds = %_ZNSt23mersenne_twister_engineImLm32ELm624ELm397ELm31ELm2567483615ELm11ELm4294967295ELm7ELm2636928640ELm15ELm4022730752ELm18ELm1812433253EE11_M_gen_randEv.exit.i, %.lr.ph
  %90 = phi i64 [ 0, %_ZNSt23mersenne_twister_engineImLm32ELm624ELm397ELm31ELm2567483615ELm11ELm4294967295ELm7ELm2636928640ELm15ELm4022730752ELm18ELm1812433253EE11_M_gen_randEv.exit.i ], [ %43, %.lr.ph ]
  %91 = add nuw nsw i64 %90, 1
  store i64 %91, ptr %21, align 8, !tbaa !10
  %92 = getelementptr inbounds nuw [624 x i64], ptr %13, i64 0, i64 %90
  %93 = load i64, ptr %92, align 8, !tbaa !4
  %94 = invoke noundef i64 @_ZNSt23mersenne_twister_engineImLm32ELm624ELm397ELm31ELm2567483615ELm11ELm4294967295ELm7ELm2636928640ELm15ELm4022730752ELm18ELm1812433253EEclEv(ptr noundef nonnull align 8 dereferenceable(5000) %13)
          to label %95 unwind label %.loopexit

95:                                               ; preds = %.noexc
  %96 = lshr i64 %93, 11
  %97 = and i64 %96, 4294967295
  %98 = xor i64 %97, %93
  %99 = shl i64 %98, 7
  %100 = and i64 %99, 2636928640
  %101 = xor i64 %100, %98
  %102 = shl i64 %101, 15
  %103 = and i64 %102, 4022730752
  %104 = xor i64 %103, %101
  %105 = lshr i64 %104, 18
  %106 = xor i64 %105, %104
  %107 = and i64 %106, 2147483647
  %108 = shl i64 %94, 31
  %109 = and i64 %108, 4611686016279904256
  %110 = or disjoint i64 %107, %109
  %111 = load i64, ptr %7, align 8, !tbaa !4
  %112 = urem i64 %110, %111
  %113 = load ptr, ptr %6, align 8, !tbaa !28
  %114 = getelementptr inbounds nuw i64, ptr %113, i64 %.025
  store i64 %112, ptr %114, align 8, !tbaa !4
  %115 = add nuw i64 %.025, 1
  %116 = icmp ult i64 %115, %38
  br i1 %116, label %.lr.ph, label %._crit_edge, !llvm.loop !31

._crit_edge29:                                    ; preds = %._crit_edge, %15
  call void @__kmpc_for_static_fini(ptr nonnull @1, i32 %17)
  call void @llvm.lifetime.end.p0(i64 4, ptr nonnull %12) #6
  call void @llvm.lifetime.end.p0(i64 8, ptr nonnull %11) #6
  call void @llvm.lifetime.end.p0(i64 8, ptr nonnull %10) #6
  call void @llvm.lifetime.end.p0(i64 8, ptr nonnull %9) #6
  br label %117

117:                                              ; preds = %._crit_edge29, %8
  ret void

.loopexit:                                        ; preds = %.noexc
  %lpad.loopexit = landingpad { ptr, i32 }
          catch ptr null
  br label %118

.loopexit.split-lp:                               ; preds = %24
  %lpad.loopexit.split-lp = landingpad { ptr, i32 }
          catch ptr null
  br label %118

118:                                              ; preds = %.loopexit.split-lp, %.loopexit
  %lpad.phi = phi { ptr, i32 } [ %lpad.loopexit, %.loopexit ], [ %lpad.loopexit.split-lp, %.loopexit.split-lp ]
  %119 = extractvalue { ptr, i32 } %lpad.phi, 0
  call void @__clang_call_terminate(ptr %119) #18
  unreachable
}